
.temp.file.elf:     file format elf32-littleriscv

SYMBOL TABLE:
00000000 l    d  .init	00000000 .init
00000054 l    d  .text	00000000 .text
02000000 l    d  .data	00000000 .data
02000000 l    d  .bss	00000000 .bss
02000000 l    d  .stack	00000000 .stack
00000000 l    d  .riscv.attributes	00000000 .riscv.attributes
00000000 l    d  .comment	00000000 .comment
00000000 l    d  .debug_aranges	00000000 .debug_aranges
00000000 l    d  .debug_info	00000000 .debug_info
00000000 l    d  .debug_abbrev	00000000 .debug_abbrev
00000000 l    d  .debug_line	00000000 .debug_line
00000000 l    d  .debug_str	00000000 .debug_str
00000000 l    d  .debug_loc	00000000 .debug_loc
00000000 l    d  .debug_ranges	00000000 .debug_ranges
00000000 l    d  .debug_frame	00000000 .debug_frame
00000000 l    d  .debug_macro	00000000 .debug_macro
00000000 l    df *ABS*	00000000 tls.c
00000000 l    df *ABS*	00000000 
00000164 l       .debug_info	00000000 
00000164 l       .debug_info	00000000 
00000164 l       .debug_info	00000000 
00000164 l       .debug_info	00000000 
00000164 l       .debug_info	00000000 
00000164 l       .debug_info	00000000 
00000164 l       .debug_info	00000000 
00000164 l       .debug_info	00000000 
00000164 l       .debug_info	00000000 
00000164 l       .debug_info	00000000 
00000164 l       .debug_info	00000000 
00000164 l       .debug_info	00000000 
00000164 l       .debug_info	00000000 
00000164 l       .debug_info	00000000 
00000164 l       .debug_info	00000000 
00000164 l       .debug_info	00000000 
00000164 l       .debug_info	00000000 
00000164 l       .debug_info	00000000 
00000164 l       .debug_info	00000000 
00000164 l       .debug_info	00000000 
00000000 g       *ABS*	00000000 __data_size
02000800 g       .data	00000000 __global_pointer$
02000000 g       .bss	00000000 __tls_base
00000400 g       *ABS*	00000000 __flash_size
00000008 g       *ABS*	00000000 __stack_size
00000000 g       *ABS*	00000000 __bss_size
00000344 g     F .text	00000024 memcpy
02000000 g       .bss	00000000 __bss_end
00000164  w      .debug_info	00000000 .hidden path_planner.c.9f8a4b5a
00000000 g       *ABS*	00000000 __tbss_size
0000033c g     F .text	00000008 _set_tls
00000000 g     F .init	00000000 _start
02000000 g       *ABS*	00000000 __ram
02000000 g       .bss	00000000 __data_end
00000384 g       .text	00000000 __text_end
02000000 g       .bss	00000000 __bss_start
00000368 g     F .text	0000001c memset
00000054 g     F .text	000002e8 main
00000040 g       *ABS*	00000000 __ram_size
02000040 g       .init	00000000 __stack
00000000 g     F *ABS*	00000000 vfscanf
00000388 g       *ABS*	00000000 __data_source
00000000 g       *ABS*	00000000 __flash
02000000 g       .data	00000000 __data_start
00000000 g     F *ABS*	00000000 vfprintf



Disassembly of section .init:

00000000 <_start>:
   0:	    02000117          	auipc	x2,0x2000
   4:	    04010113          	addi	x2,x2,64 # 2000040 <__stack>
   8:	    02000197          	auipc	x3,0x2000
   c:	    7f818193          	addi	x3,x3,2040 # 2000800 <__global_pointer$>
  10:	    02000517          	auipc	x10,0x2000
  14:	    ff050513          	addi	x10,x10,-16 # 2000000 <__bss_end>
  18:	    38800593          	addi	x11,x0,904
  1c:	    00000613          	addi	x12,x0,0
  20:	    324000ef          	jal	x1,344 <memcpy>
  24:	    02000517          	auipc	x10,0x2000
  28:	    fdc50513          	addi	x10,x10,-36 # 2000000 <__bss_end>
  2c:	    00000593          	addi	x11,x0,0
  30:	    00000613          	addi	x12,x0,0
  34:	    334000ef          	jal	x1,368 <memset>
  38:	    02000517          	auipc	x10,0x2000
  3c:	    fc850513          	addi	x10,x10,-56 # 2000000 <__bss_end>
  40:	    2fc000ef          	jal	x1,33c <_set_tls>
  44:	    00000513          	addi	x10,x0,0
  48:	    00000593          	addi	x11,x0,0
  4c:	    008000ef          	jal	x1,54 <main>
  50:	/-- 0000006f          	jal	x0,50 <__ram_size+0x10>

Disassembly of section .text:

00000054 <main>:
     ###     void _put_str(char *str) { }
     ### 
     ### #endif
     ### 
     ### // main function
     ### int main(int argc, char const *argv[]) {
  54:	                      fd010113          	addi	x2,x2,-48
  58:	                      02112623          	sw	x1,44(x2)
  5c:	                      02812423          	sw	x8,40(x2)
     ###         #define visited     (* (volatile uint32_t * ) 0x02000090)
     ###         #define path_index   (* (volatile uint8_t * ) 0x020000D4)
     ### 
     ###     #endif
     ### 
     ###     graph[ 0] = 0x42200000;
  60:	                      422007b7          	lui	x15,0x42200
  64:	                      02000437          	lui	x8,0x2000
  68:	                      00f42823          	sw	x15,16(x8) # 2000010 <__bss_end+0x10>
     ###     graph[ 1] = 0xA0100000;
  6c:	                      a01007b7          	lui	x15,0xa0100
  70:	                      00f42a23          	sw	x15,20(x8)
     ###     graph[ 2] = 0x5C000000;
  74:	                      5c0007b7          	lui	x15,0x5c000
  78:	                      00f42c23          	sw	x15,24(x8)
     ###     graph[ 3] = 0x20000000;
  7c:	                      200007b7          	lui	x15,0x20000
  80:	                      00f42e23          	sw	x15,28(x8)
     ###     graph[ 4] = 0x20000000;
  84:	                      02f42023          	sw	x15,32(x8)
     ###     graph[ 5] = 0x20000000;
  88:	                      02f42223          	sw	x15,36(x8)
     ###     graph[ 6] = 0x81C00000;
  8c:	                      81c007b7          	lui	x15,0x81c00
  90:	                      02f42423          	sw	x15,40(x8)
     ###     graph[ 7] = 0x02000000;
     ###     graph[ 8] = 0x02000000;
     ###     graph[ 9] = 0x02000000;
     ###     graph[10] = 0x801000A0;
  94:	                      801007b7          	lui	x15,0x80100
  98:	                      0a078793          	addi	x15,x15,160 # 801000a0 <__global_pointer$+0x7e0ff8a0>
  9c:	                      02f42c23          	sw	x15,56(x8)
     ###     graph[11] = 0x40281000;
  a0:	                      402817b7          	lui	x15,0x40281
  a4:	                      02f42e23          	sw	x15,60(x8)
     ###     graph[12] = 0x00160000;
  a8:	                      001607b7          	lui	x15,0x160
  ac:	                      04f42023          	sw	x15,64(x8)
     ###     graph[13] = 0x00080000;
  b0:	                      000807b7          	lui	x15,0x80
  b4:	                      04f42223          	sw	x15,68(x8)
     ###     graph[14] = 0x00098000;
  b8:	                      000987b7          	lui	x15,0x98
  bc:	                      04f42423          	sw	x15,72(x8)
     ###     graph[15] = 0x00020000;
  c0:	                      000207b7          	lui	x15,0x20
  c4:	                      04f42623          	sw	x15,76(x8)
     ###     graph[16] = 0x00026000;
  c8:	                      000267b7          	lui	x15,0x26
  cc:	                      04f42823          	sw	x15,80(x8)
     ###     graph[17] = 0x00008000;
  d0:	                      000087b7          	lui	x15,0x8
  d4:	                      04f42a23          	sw	x15,84(x8)
     ###     graph[18] = 0x00009400;
  d8:	                      000097b7          	lui	x15,0x9
  dc:	                      40078793          	addi	x15,x15,1024 # 9400 <__flash_size+0x9000>
  e0:	                      04f42c23          	sw	x15,88(x8)
     ###     graph[19] = 0x00102800;
  e4:	                      001037b7          	lui	x15,0x103
  e8:	                      80078793          	addi	x15,x15,-2048 # 102800 <__flash_size+0x102400>
  ec:	                      04f42e23          	sw	x15,92(x8)
     ###     graph[20] = 0x00001000;
  f0:	                      000017b7          	lui	x15,0x1
  f4:	                      06f42023          	sw	x15,96(x8)
     ###     graph[21] = 0x00002300;
  f8:	                      000027b7          	lui	x15,0x2
  fc:	                      30078793          	addi	x15,x15,768 # 2300 <__flash_size+0x1f00>
 100:	                      06f42223          	sw	x15,100(x8)
     ###     graph[22] = 0x00000400;
 104:	                      40000793          	addi	x15,x0,1024
 108:	                      06f42423          	sw	x15,104(x8)
     ###     graph[23] = 0x00000482;
 10c:	                      48200793          	addi	x15,x0,1154
 110:	                      06f42623          	sw	x15,108(x8)
     ###     graph[24] = 0x00200140;
 114:	                      002007b7          	lui	x15,0x200
 118:	                      14078713          	addi	x14,x15,320 # 200140 <__flash_size+0x1ffd40>
     ###     graph[25] = 0x00000080;
     ###     graph[26] = 0x00200018;
 11c:	                      01878793          	addi	x15,x15,24
 120:	                      06f42c23          	sw	x15,120(x8)
     ###     graph[27] = 0x00000020;
 124:	                      02000793          	addi	x15,x0,32
 128:	                      06f42e23          	sw	x15,124(x8)
     ###     graph[28] = 0x00000026;
 12c:	                      02600793          	addi	x15,x0,38
     ###     graph[24] = 0x00200140;
 130:	                      06e42823          	sw	x14,112(x8)
     ###     graph[28] = 0x00000026;
 134:	                      08f42023          	sw	x15,128(x8)
     ###     graph[25] = 0x00000080;
 138:	                      08000713          	addi	x14,x0,128
     ###     graph[29] = 0x00000008;
 13c:	                      00800793          	addi	x15,x0,8
     ###     graph[25] = 0x00000080;
 140:	                      06e42a23          	sw	x14,116(x8)
     ###     graph[29] = 0x00000008;
 144:	                      08f42223          	sw	x15,132(x8)
     ###     graph[ 7] = 0x02000000;
 148:	                      02842623          	sw	x8,44(x8)
     ###     graph[ 8] = 0x02000000;
 14c:	                      02842823          	sw	x8,48(x8)
     ###     graph[ 9] = 0x02000000;
 150:	                      02842a23          	sw	x8,52(x8)
     ###     graph[30] = 0x00000109;
 154:	                      10900793          	addi	x15,x0,265
 158:	                      08f42423          	sw	x15,136(x8)
     ###     graph[31] = 0x00000002;
 15c:	                      00200793          	addi	x15,x0,2
 160:	                      08f42623          	sw	x15,140(x8)
     ### 
     ###     visited = 0;
 164:	                      08042823          	sw	x0,144(x8)
     ###     for (int i = 0; i < V; i++) parent[i] = 255; // Initialize parent array with 255 (indicates no parent)
 168:	                      0ff00593          	addi	x11,x0,255
 16c:	                      09440513          	addi	x10,x8,148
 170:	                      02000613          	addi	x12,x0,32
 174:	                      1f4000ef          	jal	x1,368 <memset>
     ### 
     ###     visited |= (1 << START_POINT);     // Mark start node as visited
 178:	                      00044683          	lbu	x13,0(x8)
 17c:	                      09042703          	lw	x14,144(x8)
 180:	                      00100793          	addi	x15,x0,1
 184:	                      00d797b3          	sll	x15,x15,x13
 188:	                      00e7e7b3          	or	x15,x15,x14
 18c:	                      08f42823          	sw	x15,144(x8)
     ###     parent[START_POINT] = START_POINT;       // Start node's parent is itself
 190:	                      00044783          	lbu	x15,0(x8)
 194:	                      00044703          	lbu	x14,0(x8)
 198:	                      02000593          	addi	x11,x0,32
 19c:	                      0ff7f793          	andi	x15,x15,255
 1a0:	                      00f40433          	add	x8,x8,x15
     ### 
     ###     // Iteratively explore nodes
     ###     for (int step = 0; step < V; ++step) {
     ###         for (int node = 0; node < V; ++node) {
     ###             // If node is visited, check its neighbors
     ###             if (visited & (1 << node)) {
 1a4:	                      020007b7          	lui	x15,0x2000
     ###     parent[START_POINT] = START_POINT;       // Start node's parent is itself
 1a8:	                      08e40a23          	sb	x14,148(x8)
     ###             if (visited & (1 << node)) {
 1ac:	                      00100893          	addi	x17,x0,1
 1b0:	                      01078e13          	addi	x28,x15,16 # 2000010 <__bss_end+0x10>
     ###                 for (int i = 0; i < V; ++i) {
     ###                     if (((graph[node] & (1 << (V - 1 -i))) ? 1 : 0) && !(visited & (1 << i))) {
 1b4:	                      80000eb7          	lui	x29,0x80000
     ###                 for (int i = 0; i < V; ++i) {
 1b8:	                      02000313          	addi	x6,x0,32
     ###         for (int node = 0; node < V; ++node) {
 1bc:	            /-------> 00000693          	addi	x13,x0,0
     ###             if (visited & (1 << node)) {
 1c0:	            |     /-> 0907a603          	lw	x12,144(x15)
 1c4:	            |     |   00d89733          	sll	x14,x17,x13
 1c8:	            |     |   00c77733          	and	x14,x14,x12
 1cc:	            |  /--|-- 00071c63          	bne	x14,x0,1e4 <path_planner.c.9f8a4b5a+0x80>
     ###         for (int node = 0; node < V; ++node) {
 1d0:	         /--|--|--|-> 00168693          	addi	x13,x13,1
 1d4:	         |  |  |  \-- fe6696e3          	bne	x13,x6,1c0 <path_planner.c.9f8a4b5a+0x5c>
     ###     for (int step = 0; step < V; ++step) {
 1d8:	         |  |  |      fff58593          	addi	x11,x11,-1
 1dc:	         |  \--|----- fe0590e3          	bne	x11,x0,1bc <path_planner.c.9f8a4b5a+0x58>
 1e0:	      /--|-----|----- 05c0006f          	jal	x0,23c <path_planner.c.9f8a4b5a+0xd8>
 1e4:	      |  |     \----> 00269513          	slli	x10,x13,0x2
 1e8:	      |  |            01c50533          	add	x10,x10,x28
     ###                 for (int i = 0; i < V; ++i) {
 1ec:	      |  |            00000713          	addi	x14,x0,0
     ###                     if (((graph[node] & (1 << (V - 1 -i))) ? 1 : 0) && !(visited & (1 << i))) {
 1f0:	      |  |     /----> 00052803          	lw	x16,0(x10) # 2000000 <__bss_end>
 1f4:	      |  |     |      00eed633          	srl	x12,x29,x14
 1f8:	      |  |     |      01067633          	and	x12,x12,x16
 1fc:	      |  |     |  /-- 00061863          	bne	x12,x0,20c <path_planner.c.9f8a4b5a+0xa8>
     ###                 for (int i = 0; i < V; ++i) {
 200:	      |  |  /--|--|-> 00170713          	addi	x14,x14,1
 204:	      |  |  |  \--|-- fe6716e3          	bne	x14,x6,1f0 <path_planner.c.9f8a4b5a+0x8c>
 208:	      |  \--|-----|-- fc9ff06f          	jal	x0,1d0 <path_planner.c.9f8a4b5a+0x6c>
     ###                     if (((graph[node] & (1 << (V - 1 -i))) ? 1 : 0) && !(visited & (1 << i))) {
 20c:	      |     |     \-> 0907a803          	lw	x16,144(x15)
 210:	      |     |         00e89633          	sll	x12,x17,x14
 214:	      |     |         00c87833          	and	x16,x16,x12
 218:	      |     +-------- fe0814e3          	bne	x16,x0,200 <path_planner.c.9f8a4b5a+0x9c>
     ###                         visited |= (1 << i);   // Mark neighbor as visited
 21c:	      |     |         0907a803          	lw	x16,144(x15)
 220:	      |     |         01066633          	or	x12,x12,x16
 224:	      |     |         08c7a823          	sw	x12,144(x15)
     ###                         parent[i] = node;      // Record parent
 228:	      |     |         00e78633          	add	x12,x15,x14
 22c:	      |     |         08d60a23          	sb	x13,148(x12)
     ###                         if (i == END_POINT)  // Stop if destination is reached
 230:	      |     |         0047c603          	lbu	x12,4(x15)
 234:	      |     |         0ff67613          	andi	x12,x12,255
 238:	      |     \-------- fce614e3          	bne	x12,x14,200 <path_planner.c.9f8a4b5a+0x9c>
     ###             }
     ###         }
     ###     }
     ### 
     ###     reconstruct:
     ###     if (!(visited & (1 << END_POINT))) {
 23c:	      \-------------> 02000737          	lui	x14,0x2000
 240:	                      09072683          	lw	x13,144(x14) # 2000090 <__stack+0x50>
 244:	                      00474603          	lbu	x12,4(x14)
 248:	                      00100793          	addi	x15,x0,1
 24c:	                      00c797b3          	sll	x15,x15,x12
 250:	                      00d7f7b3          	and	x15,x15,x13
 254:	      /-------------- 06078e63          	beq	x15,x0,2d0 <path_planner.c.9f8a4b5a+0x16c>
     ###         return 0;
     ###     }
     ### 
     ###     // Path reconstruction
     ###     path_index = 0;
 258:	      |               0c070a23          	sb	x0,212(x14)
     ###     for (int node = END_POINT; node != START_POINT; node = parent[node]) {
 25c:	      |               00474703          	lbu	x14,4(x14)
 260:	      |               020007b7          	lui	x15,0x2000
 264:	      |               0ff77713          	andi	x14,x14,255
 268:	/-----|-------------> 0007c683          	lbu	x13,0(x15) # 2000000 <__bss_end>
 26c:	|     |               0ff6f693          	andi	x13,x13,255
 270:	|     |     /-------- 06e69a63          	bne	x13,x14,2e4 <path_planner.c.9f8a4b5a+0x180>
     ###         path[path_index++] = node;
     ###     }
     ###     path[path_index++] = START_POINT; // Add the start node to the path
 274:	|     |     |         0d47c703          	lbu	x14,212(x15)
     ### 
     ###     // Print the path in reverse order (from start to destination)
     ###     for (int i = path_index - 1; i >= 0; --i) {
 278:	|     |     |         fff00593          	addi	x11,x0,-1
     ###         path_planned[idx] = path[i];
 27c:	|     |     |         02000537          	lui	x10,0x2000
     ###     path[path_index++] = START_POINT; // Add the start node to the path
 280:	|     |     |         0ff77713          	andi	x14,x14,255
 284:	|     |     |         00170693          	addi	x13,x14,1
 288:	|     |     |         0ff6f693          	andi	x13,x13,255
 28c:	|     |     |         0cd78a23          	sb	x13,212(x15)
 290:	|     |     |         0007c683          	lbu	x13,0(x15)
 294:	|     |     |         00e78733          	add	x14,x15,x14
 298:	|     |     |         0ad70a23          	sb	x13,180(x14)
     ###     for (int i = path_index - 1; i >= 0; --i) {
 29c:	|     |     |         0d47c683          	lbu	x13,212(x15)
 2a0:	|     |     |         0ff6f693          	andi	x13,x13,255
 2a4:	|     |     |         00068713          	addi	x14,x13,0
     ###         path_planned[idx] = path[i];
 2a8:	|  /--|-----|-------> 40e687b3          	sub	x15,x13,x14
     ###     for (int i = path_index - 1; i >= 0; --i) {
 2ac:	|  |  |     |         fff70613          	addi	x12,x14,-1
     ###         path_planned[idx] = path[i];
 2b0:	|  |  |     |         0ff7f793          	andi	x15,x15,255
     ###     for (int i = path_index - 1; i >= 0; --i) {
 2b4:	|  |  |     |     /-- 04b61c63          	bne	x12,x11,30c <path_planner.c.9f8a4b5a+0x1a8>
     ###         ++idx;
     ###     }
     ###     // ##############################################
     ### 
     ###     // the node values are written into data memory sequentially.
     ###     for (int i = 0; i < idx; ++i) {
 2b8:	|  |  |     |     |   00000713          	addi	x14,x0,0
     ###         NODE_POINT = path_planned[i];
 2bc:	|  |  |     |     |   020006b7          	lui	x13,0x2000
     ###     for (int i = 0; i < idx; ++i) {
 2c0:	|  |  |  /--|--/--|-X 06f71463          	bne	x14,x15,328 <path_planner.c.9f8a4b5a+0x1c4>
     ###     }
     ###     // Path Planning Computation Done Flag
     ###     CPU_DONE = 1;
 2c4:	|  |  |  |  |  |  |   020007b7          	lui	x15,0x2000
 2c8:	|  |  |  |  |  |  |   00100713          	addi	x14,x0,1
 2cc:	|  |  |  |  |  |  |   00e78623          	sb	x14,12(x15) # 200000c <__bss_end+0xc>
     ###         _put_str("################################\n");
     ### 
     ###     #endif
     ### 
     ###     return 0;
 2d0:	|  |  \--|--|--|--|-> 02c12083          	lw	x1,44(x2)
 2d4:	|  |     |  |  |  |   02812403          	lw	x8,40(x2)
 2d8:	|  |     |  |  |  |   00000513          	addi	x10,x0,0
 2dc:	|  |     |  |  |  |   03010113          	addi	x2,x2,48
 2e0:	|  |     |  |  |  |   00008067          	jalr	x0,0(x1)
     ###         path[path_index++] = node;
 2e4:	|  |     |  \--|--|-> 0d47c683          	lbu	x13,212(x15)
 2e8:	|  |     |     |  |   0ff6f693          	andi	x13,x13,255
 2ec:	|  |     |     |  |   00168613          	addi	x12,x13,1 # 2000001 <__bss_end+0x1>
 2f0:	|  |     |     |  |   0ff67613          	andi	x12,x12,255
 2f4:	|  |     |     |  |   0cc78a23          	sb	x12,212(x15)
 2f8:	|  |     |     |  |   00d786b3          	add	x13,x15,x13
 2fc:	|  |     |     |  |   0ae68a23          	sb	x14,180(x13)
     ###     for (int node = END_POINT; node != START_POINT; node = parent[node]) {
 300:	|  |     |     |  |   00e78733          	add	x14,x15,x14
 304:	|  |     |     |  |   09474703          	lbu	x14,148(x14)
 308:	\--|-----|-----|--|-- f61ff06f          	jal	x0,268 <path_planner.c.9f8a4b5a+0x104>
     ###         path_planned[idx] = path[i];
 30c:	   |     |     |  \-> 00e50733          	add	x14,x10,x14
 310:	   |     |     |      0b374703          	lbu	x14,179(x14)
 314:	   |     |     |      02010813          	addi	x16,x2,32
 318:	   |     |     |      00f807b3          	add	x15,x16,x15
 31c:	   |     |     |      fee78023          	sb	x14,-32(x15)
 320:	   |     |     |      00060713          	addi	x14,x12,0
 324:	   \-----|-----|----- f85ff06f          	jal	x0,2a8 <path_planner.c.9f8a4b5a+0x144>
     ###         NODE_POINT = path_planned[i];
 328:	         |     \----> 00e10633          	add	x12,x2,x14
 32c:	         |            00064603          	lbu	x12,0(x12)
     ###     for (int i = 0; i < idx; ++i) {
 330:	         |            00170713          	addi	x14,x14,1
     ###         NODE_POINT = path_planned[i];
 334:	         |            00c68423          	sb	x12,8(x13)
     ###     for (int i = 0; i < idx; ++i) {
 338:	         \----------- f89ff06f          	jal	x0,2c0 <path_planner.c.9f8a4b5a+0x15c>

0000033c <_set_tls>:
 33c:	00050213          	addi	x4,x10,0
 340:	00008067          	jalr	x0,0(x1)

00000344 <memcpy>:
 344:	       00050313          	addi	x6,x10,0
 348:	/----- 00060e63          	beq	x12,x0,364 <memcpy+0x20>
 34c:	|  /-> 00058383          	lb	x7,0(x11)
 350:	|  |   00730023          	sb	x7,0(x6)
 354:	|  |   fff60613          	addi	x12,x12,-1
 358:	|  |   00130313          	addi	x6,x6,1
 35c:	|  |   00158593          	addi	x11,x11,1
 360:	|  \-- fe0616e3          	bne	x12,x0,34c <memcpy+0x8>
 364:	\----> 00008067          	jalr	x0,0(x1)

00000368 <memset>:
 368:	       00050313          	addi	x6,x10,0
 36c:	/----- 00060a63          	beq	x12,x0,380 <memset+0x18>
 370:	|  /-> 00b30023          	sb	x11,0(x6)
 374:	|  |   fff60613          	addi	x12,x12,-1
 378:	|  |   00130313          	addi	x6,x6,1
 37c:	|  \-- fe061ae3          	bne	x12,x0,370 <memset+0x8>
 380:	\----> 00008067          	jalr	x0,0(x1)

00000384 <__text_end>:
 384:	0000                	c.unimp
	...
